target datalayout = "e-m:e-p270:32:32-p271:32:32-p272:64:64-i64:64-i128:128-f80:128-n8:16:32:64-S128"
target triple = "x86_64-pc-linux-gnu"

%struct.ObjectAddress = type { i32, i32, i32 }
%struct.CreateTableAsStmt = type { i32, ptr, ptr, i32, i8, i8 }
%struct.IntoClause = type { i32, ptr, ptr, ptr, ptr, i32, ptr, ptr, i8 }
%struct.RangeVar = type { i32, ptr, ptr, ptr, i8, i8, ptr, i32 }

@.str.1 = private unnamed_addr constant [11 x i8] c"createas.c\00", align 1
@.str.2 = private unnamed_addr constant [29 x i8] c"relation \22%s\22 already exists\00", align 1
@__func__.CreateTableAsRelExists = private unnamed_addr constant [23 x i8] c"CreateTableAsRelExists\00", align 1
@.str.3 = private unnamed_addr constant [39 x i8] c"relation \22%s\22 already exists, skipping\00", align 1

; Function Attrs: nounwind uwtable
define dso_local zeroext i1 @CreateTableAsRelExists(ptr noundef %0) #0 {
  %2 = alloca i1, align 1
  %3 = alloca ptr, align 8
  %4 = alloca i32, align 4
  %5 = alloca i32, align 4
  %6 = alloca %struct.ObjectAddress, align 4
  %7 = alloca ptr, align 8
  %8 = alloca i32, align 4
  store ptr %0, ptr %3, align 8
  call void @llvm.lifetime.start.p0(i64 4, ptr %4) #7
  call void @llvm.lifetime.start.p0(i64 4, ptr %5) #7
  call void @llvm.lifetime.start.p0(i64 12, ptr %6) #7
  call void @llvm.lifetime.start.p0(i64 8, ptr %7) #7
  %9 = load ptr, ptr %3, align 8
  %10 = getelementptr inbounds nuw %struct.CreateTableAsStmt, ptr %9, i32 0, i32 2
  %11 = load ptr, ptr %10, align 8
  store ptr %11, ptr %7, align 8
  %12 = load ptr, ptr %7, align 8
  %13 = getelementptr inbounds nuw %struct.IntoClause, ptr %12, i32 0, i32 1
  %14 = load ptr, ptr %13, align 8
  %15 = call i32 @RangeVarGetCreationNamespace(ptr noundef %14)
  store i32 %15, ptr %4, align 4
  %16 = load ptr, ptr %7, align 8
  %17 = getelementptr inbounds nuw %struct.IntoClause, ptr %16, i32 0, i32 1
  %18 = load ptr, ptr %17, align 8
  %19 = getelementptr inbounds nuw %struct.RangeVar, ptr %18, i32 0, i32 3
  %20 = load ptr, ptr %19, align 8
  %21 = load i32, ptr %4, align 4
  %22 = call i32 @get_relname_relid(ptr noundef %20, i32 noundef %21)
  store i32 %22, ptr %5, align 4
  %23 = load i32, ptr %5, align 4
  %24 = icmp ne i32 %23, 0
  br i1 %24, label %25, label %71

25:                                               ; preds = %1
  %26 = load ptr, ptr %3, align 8
  %27 = getelementptr inbounds nuw %struct.CreateTableAsStmt, ptr %26, i32 0, i32 5
  %28 = load i8, ptr %27, align 1, !range !4, !noundef !5
  %29 = trunc i8 %28 to i1
  br i1 %29, label %47, label %30

30:                                               ; preds = %25
  br label %31

31:                                               ; preds = %30
  br i1 true, label %32, label %34

32:                                               ; preds = %31
  %33 = call zeroext i1 @errstart_cold(i32 noundef 21, ptr noundef null) #8
  br i1 %33, label %36, label %44

34:                                               ; preds = %31
  %35 = call zeroext i1 @errstart(i32 noundef 21, ptr noundef null)
  br i1 %35, label %36, label %44

36:                                               ; preds = %34, %32
  %37 = call i32 @errcode(i32 noundef 117571716)
  %38 = load ptr, ptr %7, align 8
  %39 = getelementptr inbounds nuw %struct.IntoClause, ptr %38, i32 0, i32 1
  %40 = load ptr, ptr %39, align 8
  %41 = getelementptr inbounds nuw %struct.RangeVar, ptr %40, i32 0, i32 3
  %42 = load ptr, ptr %41, align 8
  %43 = call i32 (ptr, ...) @errmsg(ptr noundef @.str.2, ptr noundef %42)
  call void @errfinish(ptr noundef @.str.1, i32 noundef 407, ptr noundef @__func__.CreateTableAsRelExists)
  br label %44

44:                                               ; preds = %36, %34, %32
  unreachable

45:                                               ; No predecessors!
  br label %46

46:                                               ; preds = %45
  br label %47

47:                                               ; preds = %46, %25
  br label %48

48:                                               ; preds = %47
  %49 = getelementptr inbounds nuw %struct.ObjectAddress, ptr %6, i32 0, i32 0
  store i32 1259, ptr %49, align 4
  %50 = load i32, ptr %5, align 4
  %51 = getelementptr inbounds nuw %struct.ObjectAddress, ptr %6, i32 0, i32 1
  store i32 %50, ptr %51, align 4
  %52 = getelementptr inbounds nuw %struct.ObjectAddress, ptr %6, i32 0, i32 2
  store i32 0, ptr %52, align 4
  br label %53

53:                                               ; preds = %48
  br label %54

54:                                               ; preds = %53
  call void @checkMembershipInCurrentExtension(ptr noundef %6)
  br label %55

55:                                               ; preds = %54
  br i1 false, label %56, label %58

56:                                               ; preds = %55
  %57 = call zeroext i1 @errstart_cold(i32 noundef 18, ptr noundef null) #8
  br i1 %57, label %60, label %68

58:                                               ; preds = %55
  %59 = call zeroext i1 @errstart(i32 noundef 18, ptr noundef null)
  br i1 %59, label %60, label %68

60:                                               ; preds = %58, %56
  %61 = call i32 @errcode(i32 noundef 117571716)
  %62 = load ptr, ptr %7, align 8
  %63 = getelementptr inbounds nuw %struct.IntoClause, ptr %62, i32 0, i32 1
  %64 = load ptr, ptr %63, align 8
  %65 = getelementptr inbounds nuw %struct.RangeVar, ptr %64, i32 0, i32 3
  %66 = load ptr, ptr %65, align 8
  %67 = call i32 (ptr, ...) @errmsg(ptr noundef @.str.3, ptr noundef %66)
  call void @errfinish(ptr noundef @.str.1, i32 noundef 422, ptr noundef @__func__.CreateTableAsRelExists)
  br label %68

68:                                               ; preds = %60, %58, %56
  br label %69

69:                                               ; preds = %68
  br label %70

70:                                               ; preds = %69
  store i1 true, ptr %2, align 1
  store i32 1, ptr %8, align 4
  br label %72

71:                                               ; preds = %1
  store i1 false, ptr %2, align 1
  store i32 1, ptr %8, align 4
  br label %72

72:                                               ; preds = %71, %70
  call void @llvm.lifetime.end.p0(i64 8, ptr %7) #7
  call void @llvm.lifetime.end.p0(i64 12, ptr %6) #7
  call void @llvm.lifetime.end.p0(i64 4, ptr %5) #7
  call void @llvm.lifetime.end.p0(i64 4, ptr %4) #7
  %73 = load i1, ptr %2, align 1
  ret i1 %73
}