; Function Attrs: nounwind uwtable
define dso_local noundef zeroext i1 @CreateTableAsRelExists(ptr noundef readonly captures(none) %0) local_unnamed_addr #0 {
  %2 = alloca %struct.ObjectAddress, align 4
  call void @llvm.lifetime.start.p0(i64 12, ptr nonnull %2) #8
  %3 = getelementptr inbounds nuw i8, ptr %0, i64 16
  %4 = load ptr, ptr %3, align 8
  %5 = getelementptr inbounds nuw i8, ptr %4, i64 8
  %6 = load ptr, ptr %5, align 8
  %7 = tail call i32 @RangeVarGetCreationNamespace(ptr noundef %6) #8
  %8 = load ptr, ptr %5, align 8
  %9 = getelementptr inbounds nuw i8, ptr %8, i64 24
  %10 = load ptr, ptr %9, align 8
  %11 = tail call i32 @get_relname_relid(ptr noundef %10, i32 noundef %7) #8
  %.not = icmp ne i32 %11, 0
  br i1 %.not, label %12, label %33

12:                                               ; preds = %1
  %13 = getelementptr inbounds nuw i8, ptr %0, i64 29
  %14 = load i8, ptr %13, align 1, !range !4, !noundef !5
  %15 = trunc nuw i8 %14 to i1
  br i1 %15, label %23, label %16

16:                                               ; preds = %12
  %17 = tail call zeroext i1 @errstart_cold(i32 noundef 21, ptr noundef null) #9
  tail call void @llvm.assume(i1 %17)
  %18 = tail call i32 @errcode(i32 noundef 117571716) #8
  %19 = load ptr, ptr %5, align 8
  %20 = getelementptr inbounds nuw i8, ptr %19, i64 24
  %21 = load ptr, ptr %20, align 8
  %22 = tail call i32 (ptr, ...) @errmsg(ptr noundef nonnull @.str.2, ptr noundef %21) #8
  tail call void @errfinish(ptr noundef nonnull @.str.1, i32 noundef 407, ptr noundef nonnull @__func__.CreateTableAsRelExists) #8
  unreachable

23:                                               ; preds = %12
  store i32 1259, ptr %2, align 4
  %24 = getelementptr inbounds nuw i8, ptr %2, i64 4
  store i32 %11, ptr %24, align 4
  %25 = getelementptr inbounds nuw i8, ptr %2, i64 8
  store i32 0, ptr %25, align 4
  call void @checkMembershipInCurrentExtension(ptr noundef nonnull %2) #8
  %26 = call zeroext i1 @errstart(i32 noundef 18, ptr noundef null) #8
  br i1 %26, label %27, label %33

27:                                               ; preds = %23
  %28 = call i32 @errcode(i32 noundef 117571716) #8
  %29 = load ptr, ptr %5, align 8
  %30 = getelementptr inbounds nuw i8, ptr %29, i64 24
  %31 = load ptr, ptr %30, align 8
  %32 = call i32 (ptr, ...) @errmsg(ptr noundef nonnull @.str.3, ptr noundef %31) #8
  call void @errfinish(ptr noundef nonnull @.str.1, i32 noundef 422, ptr noundef nonnull @__func__.CreateTableAsRelExists) #8
  br label %33

33:                                               ; preds = %1, %23, %27
  call void @llvm.lifetime.end.p0(i64 12, ptr nonnull %2) #8
  ret i1 %.not
}